; Function Attrs: mustprogress uwtable
define void @_ZN3nix8openFileERKNSt7__cxx1112basic_stringIcSt11char_traitsIcESaIcEEE(ptr dead_on_unwind noalias writable sret(%"class.nix::AutoCloseFD") align 4 %0, ptr noundef nonnull align 8 dereferenceable(32) %1) local_unnamed_addr #5 personality ptr @__gxx_personality_v0 {
  %3 = load ptr, ptr %1, align 8
  %4 = tail call i32 (ptr, i32, ...) @open(ptr noundef %3, i32 noundef 524288)
  %.not = icmp eq i32 %4, 0
  br i1 %.not, label %5, label %10

5:                                                ; preds = %2
  %6 = tail call ptr @__cxa_allocate_exception(i64 384) #33
  invoke void @_ZN3nix8SysErrorC2IJA19_cNSt7__cxx1112basic_stringIcSt11char_traitsIcESaIcEEEEEEDpRKT_(ptr noundef nonnull align 8 dereferenceable(380) %6, ptr noundef nonnull align 1 dereferenceable(19) @.str.19, ptr noundef nonnull align 8 dereferenceable(32) %1)
          to label %7 unwind label %8

7:                                                ; preds = %5
  tail call void @__cxa_throw(ptr nonnull %6, ptr nonnull @_ZTIN3nix8SysErrorE, ptr nonnull @_ZN3nix8SysErrorD2Ev) #34
  unreachable

8:                                                ; preds = %5
  %9 = landingpad { ptr, i32 }
          cleanup
  tail call void @__cxa_free_exception(ptr %6) #33
  resume { ptr, i32 } %9

10:                                               ; preds = %2
  tail call void @_ZN3nix11AutoCloseFDC1Ei(ptr noundef nonnull align 4 dereferenceable(4) %0, i32 noundef %4)
  ret void
}